target datalayout = "e-m:e-p270:32:32-p271:32:32-p272:64:64-i64:64-i128:128-f80:128-n8:16:32:64-S128"
target triple = "x86_64-pc-linux-gnu"

%struct.ident_t = type { i32, i32, i32, i32, ptr }
%"class.ncnn::Mat" = type { ptr, ptr, i64, i32, ptr, i32, i32, i32, i32, i32, i64 }

@1 = private unnamed_addr constant %struct.ident_t { i32 0, i32 514, i32 0, i32 22, ptr @0 }, align 8

; Function Attrs: noinline noreturn nounwind uwtable
define linkonce_odr hidden void @__clang_call_terminate(ptr noundef %0) #6 comdat {
  %2 = call ptr @__cxa_begin_catch(ptr %0) #10
  call void @_ZSt9terminatev() #14
  unreachable
}

; Function Attrs: alwaysinline mustprogress nounwind uwtable
define linkonce_odr hidden noundef ptr @_ZNK4ncnn3MatcvPKT_IaEEv(ptr noundef nonnull align 8 dereferenceable(72) %0) #3 comdat align 2 {
  %2 = alloca ptr, align 8
  store ptr %0, ptr %2, align 8, !tbaa !43
  %3 = load ptr, ptr %2, align 8
  %4 = getelementptr inbounds nuw %"class.ncnn::Mat", ptr %3, i32 0, i32 0
  %5 = load ptr, ptr %4, align 8, !tbaa !51
  ret ptr %5
}

; Function Attrs: alwaysinline mustprogress nounwind uwtable
define linkonce_odr hidden noundef ptr @_ZNK4ncnn3MatcvPKT_IiEEv(ptr noundef nonnull align 8 dereferenceable(72) %0) #3 comdat align 2 {
  %2 = alloca ptr, align 8
  store ptr %0, ptr %2, align 8, !tbaa !43
  %3 = load ptr, ptr %2, align 8
  %4 = getelementptr inbounds nuw %"class.ncnn::Mat", ptr %3, i32 0, i32 0
  %5 = load ptr, ptr %4, align 8, !tbaa !51
  ret ptr %5
}

; Function Attrs: alwaysinline mustprogress nounwind uwtable
define linkonce_odr hidden noundef ptr @_ZN4ncnn3Mat3rowEi(ptr noundef nonnull align 8 dereferenceable(72) %0, i32 noundef %1) #3 comdat align 2 {
  %3 = alloca ptr, align 8
  %4 = alloca i32, align 4
  store ptr %0, ptr %3, align 8, !tbaa !43
  store i32 %1, ptr %4, align 4, !tbaa !46
  %5 = load ptr, ptr %3, align 8
  %6 = getelementptr inbounds nuw %"class.ncnn::Mat", ptr %5, i32 0, i32 0
  %7 = load ptr, ptr %6, align 8, !tbaa !51
  %8 = getelementptr inbounds nuw %"class.ncnn::Mat", ptr %5, i32 0, i32 6
  %9 = load i32, ptr %8, align 4, !tbaa !57
  %10 = sext i32 %9 to i64
  %11 = load i32, ptr %4, align 4, !tbaa !46
  %12 = sext i32 %11 to i64
  %13 = mul i64 %10, %12
  %14 = getelementptr inbounds nuw %"class.ncnn::Mat", ptr %5, i32 0, i32 2
  %15 = load i64, ptr %14, align 8, !tbaa !53
  %16 = mul i64 %13, %15
  %17 = getelementptr inbounds nuw i8, ptr %7, i64 %16
  ret ptr %17
}

; Function Attrs: alwaysinline norecurse nounwind uwtable
define internal void @_ZN4ncnnL10embed_int8ERKNS_3MatES2_fS2_RS0_iRKNS_6OptionE.omp_outlined(ptr noalias noundef %0, ptr noalias noundef %1, ptr noundef nonnull align 4 dereferenceable(4) %2, ptr noundef nonnull align 8 dereferenceable(72) %3, ptr noundef nonnull align 8 dereferenceable(72) %4, ptr noundef nonnull align 4 dereferenceable(4) %5, ptr noundef nonnull align 4 dereferenceable(4) %6, ptr noundef nonnull align 8 dereferenceable(72) %7, ptr noundef nonnull align 4 dereferenceable(4) %8, ptr noundef nonnull align 8 dereferenceable(8) %9) #9 personality ptr @__gxx_personality_v0 {
  %11 = alloca ptr, align 8
  %12 = alloca ptr, align 8
  %13 = alloca ptr, align 8
  %14 = alloca ptr, align 8
  %15 = alloca ptr, align 8
  %16 = alloca ptr, align 8
  %17 = alloca ptr, align 8
  %18 = alloca ptr, align 8
  %19 = alloca ptr, align 8
  %20 = alloca ptr, align 8
  %21 = alloca ptr, align 8
  %22 = alloca ptr, align 8
  %23 = alloca ptr, align 8
  %24 = alloca i32, align 4
  %25 = alloca i32, align 4
  %26 = alloca i32, align 4
  %27 = alloca i32, align 4
  %28 = alloca i32, align 4
  %29 = alloca i32, align 4
  %30 = alloca i32, align 4
  %31 = alloca i32, align 4
  %32 = alloca i32, align 4
  %33 = alloca ptr, align 8
  %34 = alloca i32, align 4
  %35 = alloca float, align 4
  %36 = alloca ptr, align 8
  %37 = alloca i32, align 4
  %38 = alloca i32, align 4
  store ptr %0, ptr %11, align 8, !tbaa !67
  store ptr %1, ptr %12, align 8, !tbaa !67
  store ptr %2, ptr %13, align 8, !tbaa !67
  store ptr %3, ptr %14, align 8, !tbaa !43
  store ptr %4, ptr %15, align 8, !tbaa !43
  store ptr %5, ptr %16, align 8, !tbaa !67
  store ptr %6, ptr %17, align 8, !tbaa !64
  store ptr %7, ptr %18, align 8, !tbaa !43
  store ptr %8, ptr %19, align 8, !tbaa !67
  store ptr %9, ptr %20, align 8, !tbaa !68
  %39 = load ptr, ptr %13, align 8, !tbaa !67
  %40 = load ptr, ptr %14, align 8, !tbaa !43
  %41 = load ptr, ptr %15, align 8, !tbaa !43
  %42 = load ptr, ptr %16, align 8, !tbaa !67
  %43 = load ptr, ptr %17, align 8, !tbaa !64
  %44 = load ptr, ptr %18, align 8, !tbaa !43
  %45 = load ptr, ptr %19, align 8, !tbaa !67
  %46 = load ptr, ptr %20, align 8, !tbaa !68
  store ptr %40, ptr %21, align 8
  store ptr %41, ptr %22, align 8
  store ptr %44, ptr %23, align 8
  call void @llvm.lifetime.start.p0(i64 4, ptr %24) #10
  call void @llvm.lifetime.start.p0(i64 4, ptr %25) #10
  %47 = load i32, ptr %39, align 4, !tbaa !46
  store i32 %47, ptr %25, align 4, !tbaa !46
  call void @llvm.lifetime.start.p0(i64 4, ptr %26) #10
  %48 = load i32, ptr %25, align 4, !tbaa !46
  %49 = sub nsw i32 %48, 0
  %50 = sdiv i32 %49, 1
  %51 = sub nsw i32 %50, 1
  store i32 %51, ptr %26, align 4, !tbaa !46
  call void @llvm.lifetime.start.p0(i64 4, ptr %27) #10
  store i32 0, ptr %27, align 4, !tbaa !46
  call void @llvm.lifetime.end.p0(i64 4, ptr %27) #10
  %52 = load i32, ptr %25, align 4, !tbaa !46
  %53 = icmp slt i32 0, %52
  br i1 %53, label %54, label %174

54:                                               ; preds = %10
  call void @llvm.lifetime.start.p0(i64 4, ptr %28) #10
  store i32 0, ptr %28, align 4, !tbaa !46
  call void @llvm.lifetime.start.p0(i64 4, ptr %29) #10
  %55 = load i32, ptr %26, align 4, !tbaa !46
  store i32 %55, ptr %29, align 4, !tbaa !46
  call void @llvm.lifetime.start.p0(i64 4, ptr %30) #10
  store i32 1, ptr %30, align 4, !tbaa !46
  call void @llvm.lifetime.start.p0(i64 4, ptr %31) #10
  store i32 0, ptr %31, align 4, !tbaa !46
  call void @llvm.lifetime.start.p0(i64 4, ptr %32) #10
  %56 = load ptr, ptr %11, align 8
  %57 = load i32, ptr %56, align 4, !tbaa !46
  call void @__kmpc_for_static_init_4(ptr @1, i32 %57, i32 34, ptr %31, ptr %28, ptr %29, ptr %30, i32 1, i32 1)
  %58 = load i32, ptr %29, align 4, !tbaa !46
  %59 = load i32, ptr %26, align 4, !tbaa !46
  %60 = icmp sgt i32 %58, %59
  br i1 %60, label %61, label %63

61:                                               ; preds = %54
  %62 = load i32, ptr %26, align 4, !tbaa !46
  br label %65

63:                                               ; preds = %54
  %64 = load i32, ptr %29, align 4, !tbaa !46
  br label %65

65:                                               ; preds = %63, %61
  %66 = phi i32 [ %62, %61 ], [ %64, %63 ]
  store i32 %66, ptr %29, align 4, !tbaa !46
  %67 = load i32, ptr %28, align 4, !tbaa !46
  store i32 %67, ptr %24, align 4, !tbaa !46
  br label %68

68:                                               ; preds = %167, %65
  %69 = load i32, ptr %24, align 4, !tbaa !46
  %70 = load i32, ptr %29, align 4, !tbaa !46
  %71 = icmp sle i32 %69, %70
  br i1 %71, label %73, label %72

72:                                               ; preds = %68
  br label %170

73:                                               ; preds = %68
  %74 = load i32, ptr %24, align 4, !tbaa !46
  %75 = mul nsw i32 %74, 1
  %76 = add nsw i32 0, %75
  store i32 %76, ptr %32, align 4, !tbaa !46
  call void @llvm.lifetime.start.p0(i64 8, ptr %33) #10
  %77 = load ptr, ptr %21, align 8, !tbaa !43
  %78 = load i32, ptr %32, align 4, !tbaa !46
  %79 = invoke noundef ptr @_ZN4ncnn3Mat3rowEi(ptr noundef nonnull align 8 dereferenceable(72) %77, i32 noundef %78)
          to label %80 unwind label %175

80:                                               ; preds = %73
  store ptr %79, ptr %33, align 8, !tbaa !64
  call void @llvm.lifetime.start.p0(i64 4, ptr %34) #10
  %81 = load ptr, ptr %22, align 8, !tbaa !43
  %82 = invoke noundef ptr @_ZNK4ncnn3MatcvPKT_IiEEv(ptr noundef nonnull align 8 dereferenceable(72) %81)
          to label %83 unwind label %175

83:                                               ; preds = %80
  %84 = load i32, ptr %32, align 4, !tbaa !46
  %85 = sext i32 %84 to i64
  %86 = getelementptr inbounds i32, ptr %82, i64 %85
  %87 = load i32, ptr %86, align 4, !tbaa !46
  store i32 %87, ptr %34, align 4, !tbaa !46
  %88 = load i32, ptr %34, align 4, !tbaa !46
  %89 = icmp slt i32 %88, 0
  br i1 %89, label %90, label %91

90:                                               ; preds = %83
  store i32 0, ptr %34, align 4, !tbaa !46
  br label %91

91:                                               ; preds = %90, %83
  %92 = load i32, ptr %34, align 4, !tbaa !46
  %93 = load i32, ptr %42, align 4, !tbaa !46
  %94 = icmp sge i32 %92, %93
  br i1 %94, label %95, label %98

95:                                               ; preds = %91
  %96 = load i32, ptr %42, align 4, !tbaa !46
  %97 = sub nsw i32 %96, 1
  store i32 %97, ptr %34, align 4, !tbaa !46
  br label %98

98:                                               ; preds = %95, %91
  call void @llvm.lifetime.start.p0(i64 4, ptr %35) #10
  %99 = load float, ptr %43, align 4, !tbaa !41
  %100 = fdiv fast float 1.000000e+00, %99
  store float %100, ptr %35, align 4, !tbaa !41
  call void @llvm.lifetime.start.p0(i64 8, ptr %36) #10
  %101 = load ptr, ptr %23, align 8, !tbaa !43
  %102 = invoke noundef ptr @_ZNK4ncnn3MatcvPKT_IaEEv(ptr noundef nonnull align 8 dereferenceable(72) %101)
          to label %103 unwind label %175

103:                                              ; preds = %98
  %104 = load i32, ptr %45, align 4, !tbaa !46
  %105 = load i32, ptr %34, align 4, !tbaa !46
  %106 = mul nsw i32 %104, %105
  %107 = sext i32 %106 to i64
  %108 = getelementptr inbounds i8, ptr %102, i64 %107
  store ptr %108, ptr %36, align 8, !tbaa !71
  %109 = load ptr, ptr %46, align 8, !tbaa !64
  %110 = icmp ne ptr %109, null
  br i1 %110, label %111, label %141

111:                                              ; preds = %103
  call void @llvm.lifetime.start.p0(i64 4, ptr %37) #10
  store i32 0, ptr %37, align 4, !tbaa !46
  br label %112

112:                                              ; preds = %137, %111
  %113 = load i32, ptr %37, align 4, !tbaa !46
  %114 = load i32, ptr %45, align 4, !tbaa !46
  %115 = icmp slt i32 %113, %114
  br i1 %115, label %117, label %116

116:                                              ; preds = %112
  call void @llvm.lifetime.end.p0(i64 4, ptr %37) #10
  br label %140

117:                                              ; preds = %112
  %118 = load ptr, ptr %36, align 8, !tbaa !71
  %119 = load i32, ptr %37, align 4, !tbaa !46
  %120 = sext i32 %119 to i64
  %121 = getelementptr inbounds i8, ptr %118, i64 %120
  %122 = load i8, ptr %121, align 1, !tbaa !72
  %123 = sext i8 %122 to i32
  %124 = sitofp i32 %123 to float
  %125 = load float, ptr %35, align 4, !tbaa !41
  %126 = fmul fast float %124, %125
  %127 = load ptr, ptr %46, align 8, !tbaa !64
  %128 = load i32, ptr %37, align 4, !tbaa !46
  %129 = sext i32 %128 to i64
  %130 = getelementptr inbounds float, ptr %127, i64 %129
  %131 = load float, ptr %130, align 4, !tbaa !41
  %132 = fadd fast float %126, %131
  %133 = load ptr, ptr %33, align 8, !tbaa !64
  %134 = load i32, ptr %37, align 4, !tbaa !46
  %135 = sext i32 %134 to i64
  %136 = getelementptr inbounds float, ptr %133, i64 %135
  store float %132, ptr %136, align 4, !tbaa !41
  br label %137

137:                                              ; preds = %117
  %138 = load i32, ptr %37, align 4, !tbaa !46
  %139 = add nsw i32 %138, 1
  store i32 %139, ptr %37, align 4, !tbaa !46
  br label %112, !llvm.loop !73

140:                                              ; preds = %116
  br label %165

141:                                              ; preds = %103
  call void @llvm.lifetime.start.p0(i64 4, ptr %38) #10
  store i32 0, ptr %38, align 4, !tbaa !46
  br label %142

142:                                              ; preds = %161, %141
  %143 = load i32, ptr %38, align 4, !tbaa !46
  %144 = load i32, ptr %45, align 4, !tbaa !46
  %145 = icmp slt i32 %143, %144
  br i1 %145, label %147, label %146

146:                                              ; preds = %142
  call void @llvm.lifetime.end.p0(i64 4, ptr %38) #10
  br label %164

147:                                              ; preds = %142
  %148 = load ptr, ptr %36, align 8, !tbaa !71
  %149 = load i32, ptr %38, align 4, !tbaa !46
  %150 = sext i32 %149 to i64
  %151 = getelementptr inbounds i8, ptr %148, i64 %150
  %152 = load i8, ptr %151, align 1, !tbaa !72
  %153 = sext i8 %152 to i32
  %154 = sitofp i32 %153 to float
  %155 = load float, ptr %35, align 4, !tbaa !41
  %156 = fmul fast float %154, %155
  %157 = load ptr, ptr %33, align 8, !tbaa !64
  %158 = load i32, ptr %38, align 4, !tbaa !46
  %159 = sext i32 %158 to i64
  %160 = getelementptr inbounds float, ptr %157, i64 %159
  store float %156, ptr %160, align 4, !tbaa !41
  br label %161

161:                                              ; preds = %147
  %162 = load i32, ptr %38, align 4, !tbaa !46
  %163 = add nsw i32 %162, 1
  store i32 %163, ptr %38, align 4, !tbaa !46
  br label %142, !llvm.loop !75

164:                                              ; preds = %146
  br label %165

165:                                              ; preds = %164, %140
  call void @llvm.lifetime.end.p0(i64 8, ptr %36) #10
  call void @llvm.lifetime.end.p0(i64 4, ptr %35) #10
  call void @llvm.lifetime.end.p0(i64 4, ptr %34) #10
  call void @llvm.lifetime.end.p0(i64 8, ptr %33) #10
  br label %166

166:                                              ; preds = %165
  br label %167

167:                                              ; preds = %166
  %168 = load i32, ptr %24, align 4, !tbaa !46
  %169 = add nsw i32 %168, 1
  store i32 %169, ptr %24, align 4, !tbaa !46
  br label %68

170:                                              ; preds = %72
  br label %171

171:                                              ; preds = %170
  %172 = load ptr, ptr %11, align 8
  %173 = load i32, ptr %172, align 4, !tbaa !46
  call void @__kmpc_for_static_fini(ptr @1, i32 %173)
  call void @llvm.lifetime.end.p0(i64 4, ptr %32) #10
  call void @llvm.lifetime.end.p0(i64 4, ptr %31) #10
  call void @llvm.lifetime.end.p0(i64 4, ptr %30) #10
  call void @llvm.lifetime.end.p0(i64 4, ptr %29) #10
  call void @llvm.lifetime.end.p0(i64 4, ptr %28) #10
  br label %174

174:                                              ; preds = %171, %10
  call void @llvm.lifetime.end.p0(i64 4, ptr %26) #10
  call void @llvm.lifetime.end.p0(i64 4, ptr %25) #10
  call void @llvm.lifetime.end.p0(i64 4, ptr %24) #10
  ret void

175:                                              ; preds = %98, %80, %73
  %176 = landingpad { ptr, i32 }
          catch ptr null
  %177 = extractvalue { ptr, i32 } %176, 0
  call void @__clang_call_terminate(ptr %177) #14
  unreachable
}