; Function Attrs: alwaysinline norecurse nounwind uwtable
define internal void @_ZN4ncnnL10embed_int8ERKNS_3MatES2_fS2_RS0_iRKNS_6OptionE.omp_outlined(ptr noalias noundef readonly captures(none) %0, ptr noalias readnone captures(none) %1, ptr noundef nonnull readonly align 4 captures(none) dereferenceable(4) %2, ptr noundef nonnull readonly align 8 captures(none) dereferenceable(72) %3, ptr noundef nonnull readonly align 8 captures(none) dereferenceable(72) %4, ptr noundef nonnull readonly align 4 captures(none) dereferenceable(4) %5, ptr noundef nonnull readonly align 4 captures(none) dereferenceable(4) %6, ptr noundef nonnull readonly align 8 captures(none) dereferenceable(72) %7, ptr noundef nonnull readonly align 4 captures(none) dereferenceable(4) %8, ptr noundef nonnull readonly align 8 captures(none) dereferenceable(8) %9) #8 personality ptr @__gxx_personality_v0 {
  %11 = alloca i32, align 4
  %12 = alloca i32, align 4
  %13 = alloca i32, align 4
  %14 = alloca i32, align 4
  %15 = load i32, ptr %2, align 4, !tbaa !50
  %16 = icmp sgt i32 %15, 0
  br i1 %16, label %17, label %71

17:                                               ; preds = %10
  %18 = add nsw i32 %15, -1
  call void @llvm.lifetime.start.p0(i64 4, ptr nonnull %11) #9
  store i32 0, ptr %11, align 4, !tbaa !50
  call void @llvm.lifetime.start.p0(i64 4, ptr nonnull %12) #9
  store i32 %18, ptr %12, align 4, !tbaa !50
  call void @llvm.lifetime.start.p0(i64 4, ptr nonnull %13) #9
  store i32 1, ptr %13, align 4, !tbaa !50
  call void @llvm.lifetime.start.p0(i64 4, ptr nonnull %14) #9
  store i32 0, ptr %14, align 4, !tbaa !50
  %19 = load i32, ptr %0, align 4, !tbaa !50
  call void @__kmpc_for_static_init_4(ptr nonnull @1, i32 %19, i32 34, ptr nonnull %14, ptr nonnull %11, ptr nonnull %12, ptr nonnull %13, i32 1, i32 1)
  %20 = load i32, ptr %12, align 4, !tbaa !50
  %21 = call i32 @llvm.smin.i32(i32 %20, i32 %18)
  store i32 %21, ptr %12, align 4, !tbaa !50
  %22 = load i32, ptr %11, align 4, !tbaa !50
  %.not51 = icmp sgt i32 %22, %21
  br i1 %.not51, label %._crit_edge, label %.lr.ph53

.lr.ph53:                                         ; preds = %17
  %23 = load ptr, ptr %3, align 8, !tbaa !16
  %24 = getelementptr inbounds nuw i8, ptr %3, i64 44
  %25 = load i32, ptr %24, align 4, !tbaa !42
  %26 = sext i32 %25 to i64
  %27 = getelementptr inbounds nuw i8, ptr %3, i64 16
  %28 = load i64, ptr %27, align 8, !tbaa !39
  %factor.op.mul = mul i64 %28, %26
  %29 = load ptr, ptr %4, align 8, !tbaa !16
  %30 = load i32, ptr %5, align 4, !tbaa !50
  %31 = add nsw i32 %30, -1
  %32 = load ptr, ptr %7, align 8, !tbaa !16
  %33 = load i32, ptr %8, align 4, !tbaa !50
  %34 = load ptr, ptr %9, align 8, !tbaa !51
  %.not45 = icmp eq ptr %34, null
  %35 = icmp sgt i32 %33, 0
  br i1 %.not45, label %.lr.ph53.split.us, label %.lr.ph53.split

.lr.ph53.split.us:                                ; preds = %.lr.ph53
  br i1 %35, label %.preheader.us.us.preheader, label %._crit_edge

.preheader.us.us.preheader:                       ; preds = %.lr.ph53.split.us
  %36 = sext i32 %22 to i64
  %37 = add nsw i32 %21, 1
  %wide.trip.count71 = zext nneg i32 %33 to i64
  br label %.preheader.us.us

.preheader.us.us:                                 ; preds = %.preheader.us.us.preheader, %..loopexit_crit_edge.us.us
  %indvars.iv73 = phi i64 [ %36, %.preheader.us.us.preheader ], [ %indvars.iv.next74, %..loopexit_crit_edge.us.us ]
  %.reass.us.us = mul i64 %factor.op.mul, %indvars.iv73
  %38 = getelementptr inbounds nuw i8, ptr %23, i64 %.reass.us.us
  %39 = getelementptr inbounds i32, ptr %29, i64 %indvars.iv73
  %40 = load i32, ptr %39, align 4, !tbaa !50
  %spec.store.select.us.us = call i32 @llvm.smax.i32(i32 %40, i32 0)
  %.not44.us.us = icmp slt i32 %spec.store.select.us.us, %30
  %spec.select.us.us = select i1 %.not44.us.us, i32 %spec.store.select.us.us, i32 %31
  %41 = load float, ptr %6, align 4, !tbaa !46
  %42 = mul nsw i32 %33, %spec.select.us.us
  %43 = sext i32 %42 to i64
  %44 = getelementptr inbounds i8, ptr %32, i64 %43
  %45 = fdiv fast float 1.000000e+00, %41
  br label %46

46:                                               ; preds = %.preheader.us.us, %46
  %indvars.iv68 = phi i64 [ 0, %.preheader.us.us ], [ %indvars.iv.next69, %46 ]
  %47 = getelementptr inbounds nuw i8, ptr %44, i64 %indvars.iv68
  %48 = load i8, ptr %47, align 1, !tbaa !56
  %49 = sitofp i8 %48 to float
  %50 = fmul fast float %49, %45
  %51 = getelementptr inbounds nuw float, ptr %38, i64 %indvars.iv68
  store float %50, ptr %51, align 4, !tbaa !46
  %indvars.iv.next69 = add nuw nsw i64 %indvars.iv68, 1
  %exitcond72.not = icmp eq i64 %indvars.iv.next69, %wide.trip.count71
  br i1 %exitcond72.not, label %..loopexit_crit_edge.us.us, label %46, !llvm.loop !57

..loopexit_crit_edge.us.us:                       ; preds = %46
  %indvars.iv.next74 = add nsw i64 %indvars.iv73, 1
  %lftr.wideiv76 = trunc i64 %indvars.iv.next74 to i32
  %exitcond77.not = icmp eq i32 %37, %lftr.wideiv76
  br i1 %exitcond77.not, label %._crit_edge, label %.preheader.us.us

.lr.ph53.split:                                   ; preds = %.lr.ph53
  br i1 %35, label %.preheader46.us.preheader, label %._crit_edge

.preheader46.us.preheader:                        ; preds = %.lr.ph53.split
  %52 = sext i32 %22 to i64
  %53 = add nsw i32 %21, 1
  %wide.trip.count = zext nneg i32 %33 to i64
  br label %.preheader46.us

.preheader46.us:                                  ; preds = %.preheader46.us.preheader, %..loopexit47_crit_edge.us
  %indvars.iv64 = phi i64 [ %52, %.preheader46.us.preheader ], [ %indvars.iv.next65, %..loopexit47_crit_edge.us ]
  %.reass.us55 = mul i64 %factor.op.mul, %indvars.iv64
  %54 = getelementptr inbounds nuw i8, ptr %23, i64 %.reass.us55
  %55 = getelementptr inbounds i32, ptr %29, i64 %indvars.iv64
  %56 = load i32, ptr %55, align 4, !tbaa !50
  %spec.store.select.us56 = call i32 @llvm.smax.i32(i32 %56, i32 0)
  %.not44.us57 = icmp slt i32 %spec.store.select.us56, %30
  %spec.select.us58 = select i1 %.not44.us57, i32 %spec.store.select.us56, i32 %31
  %57 = load float, ptr %6, align 4, !tbaa !46
  %58 = mul nsw i32 %33, %spec.select.us58
  %59 = sext i32 %58 to i64
  %60 = getelementptr inbounds i8, ptr %32, i64 %59
  %61 = fdiv fast float 1.000000e+00, %57
  br label %62

62:                                               ; preds = %.preheader46.us, %62
  %indvars.iv = phi i64 [ 0, %.preheader46.us ], [ %indvars.iv.next, %62 ]
  %63 = getelementptr inbounds nuw i8, ptr %60, i64 %indvars.iv
  %64 = load i8, ptr %63, align 1, !tbaa !56
  %65 = sitofp i8 %64 to float
  %66 = fmul fast float %65, %61
  %67 = getelementptr inbounds nuw float, ptr %34, i64 %indvars.iv
  %68 = load float, ptr %67, align 4, !tbaa !46
  %69 = fadd fast float %66, %68
  %70 = getelementptr inbounds nuw float, ptr %54, i64 %indvars.iv
  store float %69, ptr %70, align 4, !tbaa !46
  %indvars.iv.next = add nuw nsw i64 %indvars.iv, 1
  %exitcond.not = icmp eq i64 %indvars.iv.next, %wide.trip.count
  br i1 %exitcond.not, label %..loopexit47_crit_edge.us, label %62, !llvm.loop !59

..loopexit47_crit_edge.us:                        ; preds = %62
  %indvars.iv.next65 = add nsw i64 %indvars.iv64, 1
  %lftr.wideiv = trunc i64 %indvars.iv.next65 to i32
  %exitcond67.not = icmp eq i32 %53, %lftr.wideiv
  br i1 %exitcond67.not, label %._crit_edge, label %.preheader46.us

._crit_edge:                                      ; preds = %..loopexit47_crit_edge.us, %..loopexit_crit_edge.us.us, %.lr.ph53.split, %.lr.ph53.split.us, %17
  call void @__kmpc_for_static_fini(ptr nonnull @1, i32 %19)
  call void @llvm.lifetime.end.p0(i64 4, ptr nonnull %14) #9
  call void @llvm.lifetime.end.p0(i64 4, ptr nonnull %13) #9
  call void @llvm.lifetime.end.p0(i64 4, ptr nonnull %12) #9
  call void @llvm.lifetime.end.p0(i64 4, ptr nonnull %11) #9
  br label %71

71:                                               ; preds = %._crit_edge, %10
  ret void
}